-----BEGIN ENCRYPTED PRIVATE KEY-----
MIIFHDBOBgkqhkiG9w0BBQ0wQTApBgkqhkiG9w0BBQwwHAQIsjE6vyKbIiMCAggA
MAwGCCqGSIb3DQIJBQAwFAYIKoZIhvcNAwcECAQ6Ikib7vz3BIIEyEo9xb79theY
rR/QxfiEl26xm0PKoj9+zDwat0HSsm4WfYirvLaHYG4MrrltsC2Mv4wSVMp/lZkz
OKXZbrMK4omjlyPQp13Ml08sfx9zXS6PlCSsZQra7g7NCeN9KF8w/3NOvHAIh9Ba
uK6yhHAkUe9XsuW86T5tIDM1jewfLPHTh6ij2NCCB6ZPY9BwzBNwsuywWu2S+kdD
H06gPgSE/FSDBLSTcozkYRWdJ/9b5kulNJWle80plT9GkxOso7TBxqz78VzQSQOq
u8WDDusEth6YL7ruHeU7ivCH4PtQhzBkTcOzFEFaQ58T4hRUKUvAFt4yecVWSGR9
OVa0WTf78paol/K6iMZKVgIY6dRCxIf0CbQmrYGsguNy3ZLCrznqPUbGkGqi8L1D
LhbZ0+8J8qoDVA8QY6Xa3mZvFGLWCdjIRPriV27QDkuU8JB0/Z3x2VI9lLgyBGt2
/QDwjXO38aZCzZmZaRGUe5JSSDfgvmybki4gwp7o1y/+xPaTE2Q7niZWc0nNg66D
VUTuSNTGPCSpTx15x5sHp/tJhRHuW1debU5Vm2zRWU4HXTZ4Mw5j+dCTAalExZmI
O8JIvEam32HBENReaOTZGzBiM6WwKwvVoeAFIlMLyEOzMABggF/ZbRbyZfsiD44G
jNHbbqu7H0YVt9ZmZAvuyJ9tFCoXTR7yOD+YGbJMUmGi1FQeOknQldVB1ct5xZhs
jnQGfz68ygOJISzvLPW1A6Vrmbj8bYNwt+yO6KlNBNyokCIgAwcmIgerYqXmHm1y
LDOU83KzVy0FqjFDxnGGw0N7maSZZ5qfth1rY08RosZ/j+96dYRa08yZiEnAmatp
8aVOxBcMQnE4BOvPnkRvBPQSBig8nDkfmM1V03Ow/h/Q86OPv5TIYfJUxlOM9pm3
ogp1HmBcfrdokux3+0OSOoaUcXAJYPVultGjxfseTk6tc+SZVn6kJukVdNW3maZt
h0gY0Sd+Yp0vGdvWF+AusXfbgBiuXZKQ+5SKOI6GsEaoKiGUn62uOfxLlqp6F8w+
q4eGjakTF4/OXV7KmqTTwANK8SMWxmTyC7hOTFHrcm5f2QGgPBADLmwmp+4QmtuX
ZqrHQczLOepgIdIj8cuaGOO2rmv/qLU3Q00nt+/O1DhayZI1tC5Qcju9R1PjeEKo
RMan9gKgoB3u3mL2NNNTZyzOsJ9CnY0KvDBU84u7QE3omnW9cio8Pk3vUcd7ltxo
brqifV4ZLMBrtqnCe3reuZjGkZrQvyjKSyFakXle4ykSj3po93urPY9LYu91l5OL
D90eFo4fps+iTz9SQVfxg4CvRmIUj8xxfOu2BTCMwBz/t3o+vDA1cInP/7b+pjWY
A81gDgu8yXoRc7R/beA+hMp9evpMEn5vmSbIpFhsSGR35KpZ3CD1FiMjZxbr7rP+
JEPD1OTitwvF71vDyJgzOrq7gwXgOuhxrvndn5jGWqxx2G3SX05ewjGtescOa56z
mkHp2MP1p6VS1+wbzwp2VlRvi9xdlwCr3F82nT0cs4TBV+RrhU5J/9GrjIKK5sw/
N+QvE3Zp04aGdNqurPePxHYyZWgXQw6guGTqqk6Z+kPBWplbJfmj0asYZWfjNKpI
zbGZNtxye84tmXB6Odfd3g==
-----END ENCRYPTED PRIVATE KEY-----
Certificate:
    Data:
        Version: 3 (0x2)
        Serial Number: 2 (0x2)
        Signature Algorithm: sha1WithRSAEncryption
        Issuer: DC=org, DC=simple, O=Simple Inc, OU=Simple Signing CA, CN=Simple Signing CA
        Validity
            Not Before: Aug 10 13:36:03 2023 GMT
            Not After : Aug  9 13:36:03 2025 GMT
        Subject: DC=org, DC=simple, O=Simple Inc, CN=Fred Flinstone
        Subject Public Key Info:
            Public Key Algorithm: rsaEncryption
                Public-Key: (2048 bit)
                Modulus:
                    00:db:c6:60:5d:10:f4:ee:ff:89:af:60:35:ad:46:
                    8f:60:f6:9a:5e:b2:67:1d:38:71:9d:f3:cf:24:9b:
                    34:40:da:22:50:78:cf:65:71:47:27:64:30:6a:11:
                    bc:b9:3b:df:06:55:2a:06:37:f7:7c:d3:a4:99:4f:
                    31:d4:f1:5d:7d:0b:2c:f2:0a:02:55:17:2e:63:23:
                    df:71:45:10:74:f8:74:cd:2e:d9:a4:1c:9c:36:f6:
                    ee:b2:de:ee:71:2b:91:4f:4e:9d:9e:e1:aa:0d:70:
                    45:d7:a9:b1:32:6f:f8:22:bd:4f:84:59:00:5a:d8:
                    be:ce:0d:ce:51:92:1b:d6:7e:9f:1e:06:0c:2e:6e:
                    cd:c2:64:5a:96:1d:64:3b:2c:c2:25:e1:a1:dc:db:
                    59:45:10:6f:73:ea:88:c0:33:87:25:ff:ba:da:09:
                    2e:65:b0:70:81:a2:83:c6:e1:cb:7d:2c:7e:1a:e9:
                    c4:c9:b1:21:53:bb:24:58:08:c0:e2:26:95:56:2a:
                    89:88:e1:d8:b2:57:fa:ee:fd:fc:28:76:27:6d:aa:
                    d1:d4:e5:a9:6d:eb:71:07:8d:34:4b:94:83:92:b8:
                    48:d1:eb:2a:0a:73:2b:74:9e:bb:a6:81:75:cb:e0:
                    6d:70:51:fd:4a:34:22:7b:63:ce:c1:9d:fa:52:bc:
                    84:d5
                Exponent: 65537 (0x10001)
        X509v3 extensions:
            X509v3 Key Usage: critical
                Digital Signature, Key Encipherment
            X509v3 Basic Constraints: 
                CA:FALSE
            X509v3 Extended Key Usage: 
                E-mail Protection, TLS Web Client Authentication
            X509v3 Subject Key Identifier: 
                B8:E3:A3:25:A9:1C:15:CF:69:8C:97:D5:FD:BB:D9:00:66:BA:A7:42
            X509v3 Authority Key Identifier: 
                35:9F:9A:F4:09:0A:BE:FB:DA:29:8F:28:FE:EB:9A:F5:F0:A0:38:9B
            X509v3 Subject Alternative Name: 
                email:fred@simple.org
    Signature Algorithm: sha1WithRSAEncryption
    Signature Value:
        8b:7e:88:21:b6:6b:63:a9:96:ff:be:21:20:1f:76:6f:2b:25:
        0e:b8:0a:14:83:56:c9:93:85:f6:5c:e8:dd:0e:17:90:54:d4:
        7f:58:87:60:53:74:6a:38:3a:1e:38:ff:93:2b:0b:88:a1:55:
        5b:da:48:1e:c6:94:74:92:d8:b5:6b:93:82:85:db:19:c7:1f:
        ca:2b:95:4f:33:28:ba:68:84:d0:81:0d:56:a7:40:2f:50:00:
        7e:c9:a8:92:b0:2c:c5:af:ec:ec:1d:8e:49:f2:c7:08:f5:e6:
        cd:2b:03:d6:ad:b9:cc:59:a5:d0:8a:c3:93:4f:d2:46:c3:1f:
        b9:96:d0:43:72:dd:03:28:66:e6:20:8a:6d:24:16:e4:6d:69:
        5f:e7:4c:23:11:26:74:5e:5a:17:8b:cf:54:3c:ef:d8:b2:c3:
        f9:1f:96:2a:e6:bb:76:be:4c:e7:2b:3c:d8:4f:b0:72:87:d2:
        1e:10:15:9a:c2:78:be:17:f8:ad:51:ed:27:10:ac:95:72:91:
        08:03:28:63:d5:0e:99:92:1d:57:de:62:dc:0e:0e:eb:ca:d3:
        e8:c0:a5:98:0b:f0:51:49:f7:3d:b8:d1:d1:3b:5b:6e:be:ac:
        41:70:c0:ba:8f:68:d1:4c:67:8a:fc:50:26:47:1b:2e:d3:4c:
        6d:cd:06:6c
-----BEGIN CERTIFICATE-----
MIID6jCCAtKgAwIBAgIBAjANBgkqhkiG9w0BAQUFADB6MRMwEQYKCZImiZPyLGQB
GRYDb3JnMRYwFAYKCZImiZPyLGQBGRYGc2ltcGxlMRMwEQYDVQQKDApTaW1wbGUg
SW5jMRowGAYDVQQLDBFTaW1wbGUgU2lnbmluZyBDQTEaMBgGA1UEAwwRU2ltcGxl
IFNpZ25pbmcgQ0EwHhcNMjMwODEwMTMzNjAzWhcNMjUwODA5MTMzNjAzWjBbMRMw
EQYKCZImiZPyLGQBGRYDb3JnMRYwFAYKCZImiZPyLGQBGRYGc2ltcGxlMRMwEQYD
VQQKDApTaW1wbGUgSW5jMRcwFQYDVQQDDA5GcmVkIEZsaW5zdG9uZTCCASIwDQYJ
KoZIhvcNAQEBBQADggEPADCCAQoCggEBANvGYF0Q9O7/ia9gNa1Gj2D2ml6yZx04
cZ3zzySbNEDaIlB4z2VxRydkMGoRvLk73wZVKgY393zTpJlPMdTxXX0LLPIKAlUX
LmMj33FFEHT4dM0u2aQcnDb27rLe7nErkU9OnZ7hqg1wRdepsTJv+CK9T4RZAFrY
vs4NzlGSG9Z+nx4GDC5uzcJkWpYdZDsswiXhodzbWUUQb3PqiMAzhyX/utoJLmWw
cIGig8bhy30sfhrpxMmxIVO7JFgIwOImlVYqiYjh2LJX+u79/Ch2J22q0dTlqW3r
cQeNNEuUg5K4SNHrKgpzK3Seu6aBdcvgbXBR/Uo0IntjzsGd+lK8hNUCAwEAAaOB
mTCBljAOBgNVHQ8BAf8EBAMCBaAwCQYDVR0TBAIwADAdBgNVHSUEFjAUBggrBgEF
BQcDBAYIKwYBBQUHAwIwHQYDVR0OBBYEFLjjoyWpHBXPaYyX1f272QBmuqdCMB8G
A1UdIwQYMBaAFDWfmvQJCr772imPKP7rmvXwoDibMBoGA1UdEQQTMBGBD2ZyZWRA
c2ltcGxlLm9yZzANBgkqhkiG9w0BAQUFAAOCAQEAi36IIbZrY6mW/74hIB92bysl
DrgKFINWyZOF9lzo3Q4XkFTUf1iHYFN0ajg6Hjj/kysLiKFVW9pIHsaUdJLYtWuT
goXbGccfyiuVTzMoumiE0IENVqdAL1AAfsmokrAsxa/s7B2OSfLHCPXmzSsD1q25
zFml0IrDk0/SRsMfuZbQQ3LdAyhm5iCKbSQW5G1pX+dMIxEmdF5aF4vPVDzv2LLD
+R+WKua7dr5M5ys82E+wcofSHhAVmsJ4vhf4rVHtJxCslXKRCAMoY9UOmZIdV95i
3A4O68rT6MClmAvwUUn3PbjR0Ttbbr6sQXDAuo9o0UxnivxQJkcbLtNMbc0GbA==
-----END CERTIFICATE-----
