Certificate:
    Data:
        Version: 3 (0x2)
        Serial Number: 1 (0x1)
        Signature Algorithm: sha1WithRSAEncryption
        Issuer: DC=org, DC=simple, O=Simple Inc, OU=Simple Signing CA, CN=Simple Signing CA
        Validity
            Not Before: Aug 10 11:53:16 2023 GMT
            Not After : Aug  9 11:53:16 2025 GMT
        Subject: DC=org, DC=simple, O=Simple Inc, CN=www.simple.org
        Subject Public Key Info:
            Public Key Algorithm: rsaEncryption
                Public-Key: (2048 bit)
                Modulus:
                    00:af:12:eb:8c:ec:45:01:7c:93:f2:3d:d1:19:b6:
                    0e:6b:e3:3b:41:c1:9d:e6:5e:3d:8b:c9:d7:da:b5:
                    c4:1a:e9:4a:1b:48:17:a7:3f:d2:ea:8f:02:e6:7b:
                    97:0e:45:4b:27:db:6f:12:d3:a8:97:b4:60:6d:ad:
                    4a:59:2d:7d:18:d7:99:52:43:f2:6c:8c:05:f7:32:
                    04:75:92:72:14:37:b0:c2:20:a7:b3:a6:bd:ea:c3:
                    52:57:b7:f5:0b:89:97:6b:94:a1:8f:7e:0e:2c:35:
                    c3:9a:83:24:71:27:5d:e2:6d:2b:c5:de:26:69:18:
                    e6:4a:e2:e4:de:c2:64:a2:1b:0c:6b:49:1b:09:12:
                    f9:86:9a:b7:4c:68:3b:a6:65:f4:8b:67:64:86:5f:
                    3b:3e:9b:7a:c4:84:35:c7:ad:62:66:9f:64:71:e3:
                    76:9c:a3:d1:91:8e:fe:40:63:e8:22:d5:0f:e0:00:
                    f6:82:ed:02:10:4b:26:7e:5f:20:ad:38:85:c4:13:
                    a1:7f:28:84:ae:77:22:99:fd:bb:d1:93:9e:da:df:
                    b8:e5:48:f6:f6:17:32:36:4e:c8:03:d1:e0:49:c5:
                    8a:ce:4c:da:a4:03:88:10:a6:ac:58:f3:8a:c0:24:
                    2d:14:2d:cd:4e:a6:a1:95:63:80:a0:2e:f2:00:bc:
                    58:fb
                Exponent: 65537 (0x10001)
        X509v3 extensions:
            X509v3 Key Usage: critical
                Digital Signature, Key Encipherment
            X509v3 Basic Constraints: 
                CA:FALSE
            X509v3 Extended Key Usage: 
                TLS Web Server Authentication, TLS Web Client Authentication
            X509v3 Subject Key Identifier: 
                20:B9:A2:49:AB:8A:AA:B8:45:5F:22:03:10:E1:A1:8F:EA:91:8F:49
            X509v3 Authority Key Identifier: 
                35:9F:9A:F4:09:0A:BE:FB:DA:29:8F:28:FE:EB:9A:F5:F0:A0:38:9B
            X509v3 Subject Alternative Name: 
                DNS:www.simple.org
    Signature Algorithm: sha1WithRSAEncryption
    Signature Value:
        7a:a4:42:21:9f:e8:53:85:73:43:bd:f7:f4:94:b6:bf:1b:7f:
        75:fc:32:54:8d:50:01:eb:be:f5:cd:e0:02:f6:9e:78:7e:6a:
        f2:c8:a9:8f:ac:06:79:d9:8a:03:28:bd:2c:03:0e:f0:9a:a2:
        05:8c:3d:54:c0:78:97:f7:43:28:b1:e7:53:ff:fb:ff:af:f4:
        d9:cc:61:e0:24:03:66:5a:26:e0:d1:72:ee:74:d7:d8:45:16:
        64:d5:1a:a8:6e:78:de:10:bc:58:62:df:c9:96:34:79:9d:4b:
        73:bc:ba:4a:88:62:fa:e9:ed:51:f1:e1:b1:8a:2e:a6:84:ce:
        36:5d:04:ad:c2:63:73:a8:8c:8f:f9:bf:2f:cc:38:97:32:3b:
        51:fd:12:97:1c:2a:e9:59:99:0b:f1:11:1d:dd:73:ff:4e:9c:
        c1:73:4a:bb:e5:69:25:bd:a4:7e:06:e2:53:90:2b:71:bb:94:
        f7:d1:08:95:f8:a1:94:e2:72:77:dc:dd:b4:7b:3f:2a:46:71:
        2d:3b:fc:b5:cc:6a:75:f9:d7:b1:e8:3d:76:6a:56:59:86:fe:
        8a:0b:14:99:4a:74:04:5f:ce:b2:f3:2c:75:d0:f4:92:1b:05:
        25:6b:02:c9:c4:f0:dc:36:54:82:59:d7:7d:92:cb:50:21:90:
        a6:5e:19:04
-----BEGIN CERTIFICATE-----
MIID6TCCAtGgAwIBAgIBATANBgkqhkiG9w0BAQUFADB6MRMwEQYKCZImiZPyLGQB
GRYDb3JnMRYwFAYKCZImiZPyLGQBGRYGc2ltcGxlMRMwEQYDVQQKDApTaW1wbGUg
SW5jMRowGAYDVQQLDBFTaW1wbGUgU2lnbmluZyBDQTEaMBgGA1UEAwwRU2ltcGxl
IFNpZ25pbmcgQ0EwHhcNMjMwODEwMTE1MzE2WhcNMjUwODA5MTE1MzE2WjBbMRMw
EQYKCZImiZPyLGQBGRYDb3JnMRYwFAYKCZImiZPyLGQBGRYGc2ltcGxlMRMwEQYD
VQQKDApTaW1wbGUgSW5jMRcwFQYDVQQDDA53d3cuc2ltcGxlLm9yZzCCASIwDQYJ
KoZIhvcNAQEBBQADggEPADCCAQoCggEBAK8S64zsRQF8k/I90Rm2DmvjO0HBneZe
PYvJ19q1xBrpShtIF6c/0uqPAuZ7lw5FSyfbbxLTqJe0YG2tSlktfRjXmVJD8myM
BfcyBHWSchQ3sMIgp7OmverDUle39QuJl2uUoY9+Diw1w5qDJHEnXeJtK8XeJmkY
5kri5N7CZKIbDGtJGwkS+Yaat0xoO6Zl9ItnZIZfOz6besSENcetYmafZHHjdpyj
0ZGO/kBj6CLVD+AA9oLtAhBLJn5fIK04hcQToX8ohK53Ipn9u9GTntrfuOVI9vYX
MjZOyAPR4EnFis5M2qQDiBCmrFjzisAkLRQtzU6moZVjgKAu8gC8WPsCAwEAAaOB
mDCBlTAOBgNVHQ8BAf8EBAMCBaAwCQYDVR0TBAIwADAdBgNVHSUEFjAUBggrBgEF
BQcDAQYIKwYBBQUHAwIwHQYDVR0OBBYEFCC5okmriqq4RV8iAxDhoY/qkY9JMB8G
A1UdIwQYMBaAFDWfmvQJCr772imPKP7rmvXwoDibMBkGA1UdEQQSMBCCDnd3dy5z
aW1wbGUub3JnMA0GCSqGSIb3DQEBBQUAA4IBAQB6pEIhn+hThXNDvff0lLa/G391
/DJUjVAB6771zeAC9p54fmryyKmPrAZ52YoDKL0sAw7wmqIFjD1UwHiX90MosedT
//v/r/TZzGHgJANmWibg0XLudNfYRRZk1RqobnjeELxYYt/JljR5nUtzvLpKiGL6
6e1R8eGxii6mhM42XQStwmNzqIyP+b8vzDiXMjtR/RKXHCrpWZkL8REd3XP/TpzB
c0q75WklvaR+BuJTkCtxu5T30QiV+KGU4nJ33N20ez8qRnEtO/y1zGp1+dex6D12
alZZhv6KCxSZSnQEX86y8yx10PSSGwUlawLJxPDcNlSCWdd9kstQIZCmXhkE
-----END CERTIFICATE-----
