Certificate:
    Data:
        Version: 3 (0x2)
        Serial Number: 2 (0x2)
        Signature Algorithm: sha1WithRSAEncryption
        Issuer: DC=org, DC=simple, O=Simple Inc, OU=Simple Root CA, CN=Simple Root CA
        Validity
            Not Before: Aug 10 10:59:35 2023 GMT
            Not After : Aug  9 10:59:35 2033 GMT
        Subject: DC=org, DC=simple, O=Simple Inc, OU=Simple Signing CA, CN=Simple Signing CA
        Subject Public Key Info:
            Public Key Algorithm: rsaEncryption
                Public-Key: (2048 bit)
                Modulus:
                    00:ae:bf:ab:1a:89:01:35:7f:6c:2d:63:78:51:8b:
                    00:3f:4f:24:ae:50:6f:bd:b0:a2:b0:1b:99:00:5b:
                    b9:6a:46:e5:3d:95:c9:ca:0b:8d:68:4c:e0:f3:99:
                    23:25:3d:07:33:a4:9c:19:55:5f:af:b2:8a:97:cf:
                    96:3e:c4:50:a4:32:0f:ea:a4:1a:4b:21:67:4c:5d:
                    b7:31:c4:d7:da:72:2d:db:d6:4f:70:39:d9:26:5b:
                    1b:8a:3a:4a:79:17:9d:0c:42:bf:70:7e:3e:35:94:
                    2c:33:34:9f:6a:2c:eb:45:d1:24:f0:43:ca:80:a5:
                    15:b7:b4:21:8e:1a:87:50:9a:16:8e:ca:ff:bf:66:
                    a7:82:3a:c9:4b:a4:66:e1:75:03:d8:07:b8:52:0b:
                    3d:6d:1e:31:b2:fd:78:21:c9:0e:5f:0e:c2:c5:0d:
                    98:83:98:41:a8:09:27:28:c3:b6:2e:4c:09:bd:f3:
                    0b:4e:8d:9b:f2:ef:06:c3:fd:03:39:34:8c:ff:e8:
                    ae:3f:d3:cc:29:59:80:91:84:e4:92:de:71:c1:44:
                    3d:c6:06:b2:8f:6d:24:6d:30:ce:48:8a:b3:8d:9e:
                    d4:84:8a:ca:37:94:1d:08:be:56:47:be:5e:32:c8:
                    a3:14:5d:b4:13:db:98:ce:0f:08:51:f5:e9:bb:73:
                    81:61
                Exponent: 65537 (0x10001)
        X509v3 extensions:
            X509v3 Key Usage: critical
                Certificate Sign, CRL Sign
            X509v3 Basic Constraints: critical
                CA:TRUE, pathlen:0
            X509v3 Subject Key Identifier: 
                35:9F:9A:F4:09:0A:BE:FB:DA:29:8F:28:FE:EB:9A:F5:F0:A0:38:9B
            X509v3 Authority Key Identifier: 
                F3:83:D9:B4:C6:9F:02:CD:73:3B:2F:46:56:83:7F:07:CA:67:70:9F
    Signature Algorithm: sha1WithRSAEncryption
    Signature Value:
        73:8a:de:2d:ec:cc:66:d5:e3:4c:68:52:dc:57:93:40:05:f3:
        e0:75:84:43:ee:57:31:ed:cd:1d:f0:87:25:f5:ce:8e:c7:f5:
        76:e0:73:ce:46:df:13:ba:70:fe:34:d3:97:c4:bc:49:39:69:
        4e:46:c5:23:78:ad:d6:79:38:05:7e:c5:3c:d7:0f:b7:72:b5:
        49:b5:21:a1:45:79:1c:f9:68:53:35:fa:0a:65:6d:7f:2a:7a:
        b4:b8:51:d6:0b:f8:ed:16:d8:a1:24:d8:49:b8:54:a5:d3:0b:
        43:a4:80:bd:29:b6:22:09:47:91:9c:df:f5:32:8d:2b:ce:ea:
        57:40:1a:2b:22:37:f3:5c:20:3e:3e:5b:c6:33:95:0f:38:a0:
        f7:be:b4:46:02:8f:f1:03:d4:11:8c:12:cf:b2:a9:64:28:eb:
        62:f0:5a:22:48:7a:0c:56:68:f8:82:3e:c9:a3:b7:15:e0:02:
        d6:72:ad:ff:a3:58:3e:ce:39:60:f4:d2:ee:5c:c9:3d:3e:e4:
        b9:91:78:76:7f:1f:51:14:3a:90:f6:d0:6e:7b:d3:54:a0:ac:
        35:06:4e:c9:6c:68:41:55:c9:73:dd:96:9d:fe:6e:81:4a:85:
        a1:e8:c7:2b:cd:c1:49:8f:08:5b:1e:28:e2:e3:5f:51:e5:73:
        7e:fe:1f:c5
-----BEGIN CERTIFICATE-----
MIIDzzCCAregAwIBAgIBAjANBgkqhkiG9w0BAQUFADB0MRMwEQYKCZImiZPyLGQB
GRYDb3JnMRYwFAYKCZImiZPyLGQBGRYGc2ltcGxlMRMwEQYDVQQKDApTaW1wbGUg
SW5jMRcwFQYDVQQLDA5TaW1wbGUgUm9vdCBDQTEXMBUGA1UEAwwOU2ltcGxlIFJv
b3QgQ0EwHhcNMjMwODEwMTA1OTM1WhcNMzMwODA5MTA1OTM1WjB6MRMwEQYKCZIm
iZPyLGQBGRYDb3JnMRYwFAYKCZImiZPyLGQBGRYGc2ltcGxlMRMwEQYDVQQKDApT
aW1wbGUgSW5jMRowGAYDVQQLDBFTaW1wbGUgU2lnbmluZyBDQTEaMBgGA1UEAwwR
U2ltcGxlIFNpZ25pbmcgQ0EwggEiMA0GCSqGSIb3DQEBAQUAA4IBDwAwggEKAoIB
AQCuv6saiQE1f2wtY3hRiwA/TySuUG+9sKKwG5kAW7lqRuU9lcnKC41oTODzmSMl
PQczpJwZVV+vsoqXz5Y+xFCkMg/qpBpLIWdMXbcxxNfaci3b1k9wOdkmWxuKOkp5
F50MQr9wfj41lCwzNJ9qLOtF0STwQ8qApRW3tCGOGodQmhaOyv+/ZqeCOslLpGbh
dQPYB7hSCz1tHjGy/XghyQ5fDsLFDZiDmEGoCScow7YuTAm98wtOjZvy7wbD/QM5
NIz/6K4/08wpWYCRhOSS3nHBRD3GBrKPbSRtMM5IirONntSEiso3lB0IvlZHvl4y
yKMUXbQT25jODwhR9em7c4FhAgMBAAGjZjBkMA4GA1UdDwEB/wQEAwIBBjASBgNV
HRMBAf8ECDAGAQH/AgEAMB0GA1UdDgQWBBQ1n5r0CQq++9opjyj+65r18KA4mzAf
BgNVHSMEGDAWgBTzg9m0xp8CzXM7L0ZWg38HymdwnzANBgkqhkiG9w0BAQUFAAOC
AQEAc4reLezMZtXjTGhS3FeTQAXz4HWEQ+5XMe3NHfCHJfXOjsf1duBzzkbfE7pw
/jTTl8S8STlpTkbFI3it1nk4BX7FPNcPt3K1SbUhoUV5HPloUzX6CmVtfyp6tLhR
1gv47RbYoSTYSbhUpdMLQ6SAvSm2IglHkZzf9TKNK87qV0AaKyI381wgPj5bxjOV
Dzig9760RgKP8QPUEYwSz7KpZCjrYvBaIkh6DFZo+II+yaO3FeAC1nKt/6NYPs45
YPTS7lzJPT7kuZF4dn8fURQ6kPbQbnvTVKCsNQZOyWxoQVXJc92Wnf5ugUqFoejH
K83BSY8IWx4o4uNfUeVzfv4fxQ==
-----END CERTIFICATE-----
Certificate:
    Data:
        Version: 3 (0x2)
        Serial Number: 1 (0x1)
        Signature Algorithm: sha1WithRSAEncryption
        Issuer: DC=org, DC=simple, O=Simple Inc, OU=Simple Root CA, CN=Simple Root CA
        Validity
            Not Before: Aug 10 10:58:07 2023 GMT
            Not After : Aug  9 10:58:07 2033 GMT
        Subject: DC=org, DC=simple, O=Simple Inc, OU=Simple Root CA, CN=Simple Root CA
        Subject Public Key Info:
            Public Key Algorithm: rsaEncryption
                Public-Key: (2048 bit)
                Modulus:
                    00:8b:6a:80:c5:a1:d8:e9:7a:da:dd:bc:20:a6:fc:
                    3b:c6:2e:1e:6f:92:6f:cc:5d:3f:b1:82:4b:4f:cf:
                    7d:78:6c:2f:7a:dc:a0:77:65:b0:e7:da:d0:91:ae:
                    b8:fa:f3:3c:c4:1b:06:e7:f8:59:37:2d:2e:3e:55:
                    3a:50:57:dc:73:df:1b:99:99:16:33:c2:ed:48:5c:
                    e4:7a:88:94:da:74:dd:7c:b6:2d:8b:06:3e:a4:00:
                    b2:3a:60:66:44:69:15:0a:1c:da:9b:18:a1:74:1a:
                    69:3e:a0:ab:f9:e4:1e:5b:7d:6a:a7:f5:47:1a:f0:
                    21:53:e8:4c:03:7f:0d:01:49:af:5d:b8:04:19:ea:
                    1d:90:d2:22:f2:ac:83:90:e0:c7:39:77:7f:3d:11:
                    70:3e:4d:90:93:c4:2e:ed:1e:95:84:05:1e:ef:23:
                    97:4e:c1:1f:35:11:51:d0:ac:4b:e7:f8:9b:05:22:
                    18:e1:14:68:cf:0e:54:27:58:b4:4a:18:b4:7b:fb:
                    4d:99:37:da:a0:df:42:ce:a8:fb:31:08:5a:1c:d7:
                    e8:0f:4f:a3:ab:39:b6:85:5b:9f:64:f5:df:71:ce:
                    9b:bc:9b:a3:28:c5:0f:f8:ec:76:22:d6:21:25:6e:
                    75:a5:32:94:8f:77:ed:02:ae:03:2a:f3:9e:12:19:
                    c6:5d
                Exponent: 65537 (0x10001)
        X509v3 extensions:
            X509v3 Key Usage: critical
                Certificate Sign, CRL Sign
            X509v3 Basic Constraints: critical
                CA:TRUE
            X509v3 Subject Key Identifier: 
                F3:83:D9:B4:C6:9F:02:CD:73:3B:2F:46:56:83:7F:07:CA:67:70:9F
            X509v3 Authority Key Identifier: 
                F3:83:D9:B4:C6:9F:02:CD:73:3B:2F:46:56:83:7F:07:CA:67:70:9F
    Signature Algorithm: sha1WithRSAEncryption
    Signature Value:
        0f:10:03:47:32:da:d5:de:9a:c3:96:9a:b8:a4:f5:32:65:9d:
        3a:75:9d:38:3c:b9:5b:9b:73:72:9e:12:b5:ef:15:41:07:c2:
        21:ba:2a:78:5c:51:b3:27:a8:86:74:54:c6:99:cb:ab:6a:dd:
        73:b0:a9:d9:78:a6:34:ba:b9:a6:40:97:ff:7e:c5:c5:18:47:
        8b:d7:97:65:3d:50:97:33:a7:ac:d0:dd:16:4d:80:d9:d6:ad:
        17:02:a7:df:52:b1:f2:45:ab:15:88:a0:12:2e:92:e8:2c:7a:
        b7:c7:11:6e:65:fc:b9:ba:9e:5e:e5:b6:df:57:7b:3c:16:1f:
        e7:f1:81:1d:c3:85:bb:88:b1:92:40:2c:90:9a:4d:15:00:ea:
        a9:ab:a9:12:b6:d5:3b:fa:50:8b:e8:39:b5:97:1e:40:66:6a:
        a4:a1:61:0a:d6:8a:c3:be:c3:f1:f2:9b:c0:18:52:8f:91:ef:
        db:14:c0:25:ed:bf:b4:99:b3:3d:b6:19:33:3b:2b:d5:8b:18:
        39:eb:c6:ff:dc:2f:9b:e4:8a:84:cf:7f:f3:b9:65:19:72:2d:
        b5:75:fa:99:0e:ba:55:f7:2e:58:7a:ae:75:65:a2:be:9a:2c:
        1a:0d:03:9a:85:55:cc:02:d0:7e:a6:db:54:04:5c:cf:ca:d5:
        c3:94:9e:b7
-----BEGIN CERTIFICATE-----
MIIDxjCCAq6gAwIBAgIBATANBgkqhkiG9w0BAQUFADB0MRMwEQYKCZImiZPyLGQB
GRYDb3JnMRYwFAYKCZImiZPyLGQBGRYGc2ltcGxlMRMwEQYDVQQKDApTaW1wbGUg
SW5jMRcwFQYDVQQLDA5TaW1wbGUgUm9vdCBDQTEXMBUGA1UEAwwOU2ltcGxlIFJv
b3QgQ0EwHhcNMjMwODEwMTA1ODA3WhcNMzMwODA5MTA1ODA3WjB0MRMwEQYKCZIm
iZPyLGQBGRYDb3JnMRYwFAYKCZImiZPyLGQBGRYGc2ltcGxlMRMwEQYDVQQKDApT
aW1wbGUgSW5jMRcwFQYDVQQLDA5TaW1wbGUgUm9vdCBDQTEXMBUGA1UEAwwOU2lt
cGxlIFJvb3QgQ0EwggEiMA0GCSqGSIb3DQEBAQUAA4IBDwAwggEKAoIBAQCLaoDF
odjpetrdvCCm/DvGLh5vkm/MXT+xgktPz314bC963KB3ZbDn2tCRrrj68zzEGwbn
+Fk3LS4+VTpQV9xz3xuZmRYzwu1IXOR6iJTadN18ti2LBj6kALI6YGZEaRUKHNqb
GKF0Gmk+oKv55B5bfWqn9Uca8CFT6EwDfw0BSa9duAQZ6h2Q0iLyrIOQ4Mc5d389
EXA+TZCTxC7tHpWEBR7vI5dOwR81EVHQrEvn+JsFIhjhFGjPDlQnWLRKGLR7+02Z
N9qg30LOqPsxCFoc1+gPT6OrObaFW59k9d9xzpu8m6MoxQ/47HYi1iElbnWlMpSP
d+0CrgMq854SGcZdAgMBAAGjYzBhMA4GA1UdDwEB/wQEAwIBBjAPBgNVHRMBAf8E
BTADAQH/MB0GA1UdDgQWBBTzg9m0xp8CzXM7L0ZWg38HymdwnzAfBgNVHSMEGDAW
gBTzg9m0xp8CzXM7L0ZWg38HymdwnzANBgkqhkiG9w0BAQUFAAOCAQEADxADRzLa
1d6aw5aauKT1MmWdOnWdODy5W5tzcp4Ste8VQQfCIboqeFxRsyeohnRUxpnLq2rd
c7Cp2XimNLq5pkCX/37FxRhHi9eXZT1QlzOnrNDdFk2A2datFwKn31Kx8kWrFYig
Ei6S6Cx6t8cRbmX8ubqeXuW231d7PBYf5/GBHcOFu4ixkkAskJpNFQDqqaupErbV
O/pQi+g5tZceQGZqpKFhCtaKw77D8fKbwBhSj5Hv2xTAJe2/tJmzPbYZMzsr1YsY
OevG/9wvm+SKhM9/87llGXIttXX6mQ66VfcuWHqudWWivposGg0DmoVVzALQfqbb
VARcz8rVw5Setw==
-----END CERTIFICATE-----
